target datalayout = "e-m:e-p270:32:32-p271:32:32-p272:64:64-i64:64-i128:128-f80:128-n8:16:32:64-S128"
target triple = "x86_64-pc-linux-gnu"

%struct.AVCodecContext = type { ptr, i32, i32, ptr, i32, i32, ptr, ptr, ptr, i64, i32, i32, ptr, i32, %struct.AVRational, %struct.AVRational, %struct.AVRational, i32, i32, i32, i32, i32, %struct.AVRational, i32, i32, i32, i32, i32, i32, i32, i32, i32, i32, i32, ptr, ptr, i32, float, float, float, float, float, float, float, float, float, i32, i32, i32, i32, i32, i32, i32, i32, i32, i32, i32, i32, ptr, ptr, ptr, i32, i32, i32, i32, i32, i32, i32, i32, i32, i32, %struct.AVChannelLayout, i32, i32, i32, i32, i32, i32, i32, i32, ptr, i32, i32, i32, float, float, i32, i32, i32, i32, i32, ptr, i64, i64, float, float, i32, i32, ptr, ptr, i32, i32, i32, i32, i32, ptr, ptr, ptr, ptr, i32, i32, [8 x i64], i32, i32, i32, i32, i32, i32, i32, ptr, ptr, i32, i32, i32, i32, i32, i32, i32, i32, i32, i32, ptr, ptr, i32, i32, ptr, ptr, ptr, ptr, i32, i32, i64, i32, i32, i64, ptr, i64, ptr, i32, ptr, i32 }
%struct.AVRational = type { i32, i32 }
%struct.AVChannelLayout = type { i32, i32, %union.anon.1, ptr }
%union.anon.1 = type { i64 }
%struct.DBEDecodeContext = type { ptr, ptr, %struct.DBEContext, [8 x i8], [2 x [8 x %struct.DBEChannel]], [8 x [256 x float]], [2 x [3 x ptr]], [2 x [3 x ptr]], ptr, [8 x i8] }
%struct.DBEContext = type { ptr, %struct.GetBitContext, ptr, i32, i32, i32, i32, %struct.DolbyEHeaderInfo, [3136 x i8] }
%struct.GetBitContext = type { ptr, ptr, i32, i32, i32 }
%struct.DolbyEHeaderInfo = type { i32, i32, i32, i32, i32, [8 x i32], i32, i32, [8 x i32], [8 x i32], [8 x i32], i32, i32, i32 }
%struct.DBEChannel = type { i32, i32, i32, i32, [8 x %struct.DBEGroup], [8 x i32], [304 x i32], [304 x i32], [304 x i32], [1024 x float] }
%struct.DBEGroup = type { i8, [2 x i8], i16, i16, ptr, i8, i8, i16, i16, i16, i16 }

@dolby_e_init.init_once = internal global i32 0, align 4
@imdct_bits_tab = internal constant [3 x i8] c"\08\09\0B", align 1

; Function Attrs: cold nounwind optsize uwtable
define internal i32 @dolby_e_init(ptr noundef %0) #0 {
  %2 = alloca i32, align 4
  %3 = alloca ptr, align 8
  %4 = alloca ptr, align 8
  %5 = alloca float, align 4
  %6 = alloca i32, align 4
  %7 = alloca i32, align 4
  %8 = alloca i32, align 4
  store ptr %0, ptr %3, align 8, !tbaa !4
  call void @llvm.lifetime.start.p0(i64 8, ptr %4) #10
  %9 = load ptr, ptr %3, align 8, !tbaa !4
  %10 = getelementptr inbounds nuw %struct.AVCodecContext, ptr %9, i32 0, i32 6
  %11 = load ptr, ptr %10, align 8, !tbaa !9
  store ptr %11, ptr %4, align 8, !tbaa !29
  call void @llvm.lifetime.start.p0(i64 4, ptr %5) #10
  store float 2.000000e+00, ptr %5, align 4, !tbaa !31
  call void @llvm.lifetime.start.p0(i64 4, ptr %6) #10
  %12 = call i32 @pthread_once(ptr noundef @dolby_e_init.init_once, ptr noundef @init_tables)
  %13 = icmp ne i32 %12, 0
  br i1 %13, label %14, label %15

14:                                               ; preds = %1
  store i32 -1313558101, ptr %2, align 4
  store i32 1, ptr %7, align 4
  br label %98

15:                                               ; preds = %1
  call void @llvm.lifetime.start.p0(i64 4, ptr %8) #10
  store i32 0, ptr %8, align 4, !tbaa !32
  br label %16

16:                                               ; preds = %69, %15
  %17 = load i32, ptr %8, align 4, !tbaa !32
  %18 = icmp slt i32 %17, 3
  br i1 %18, label %20, label %19

19:                                               ; preds = %16
  store i32 2, ptr %7, align 4
  br label %72

20:                                               ; preds = %16
  %21 = load ptr, ptr %4, align 8, !tbaa !29
  %22 = getelementptr inbounds nuw %struct.DBEDecodeContext, ptr %21, i32 0, i32 6
  %23 = getelementptr inbounds [2 x [3 x ptr]], ptr %22, i64 0, i64 0
  %24 = load i32, ptr %8, align 4, !tbaa !32
  %25 = sext i32 %24 to i64
  %26 = getelementptr inbounds [3 x ptr], ptr %23, i64 0, i64 %25
  %27 = load ptr, ptr %4, align 8, !tbaa !29
  %28 = getelementptr inbounds nuw %struct.DBEDecodeContext, ptr %27, i32 0, i32 7
  %29 = getelementptr inbounds [2 x [3 x ptr]], ptr %28, i64 0, i64 0
  %30 = load i32, ptr %8, align 4, !tbaa !32
  %31 = sext i32 %30 to i64
  %32 = getelementptr inbounds [3 x ptr], ptr %29, i64 0, i64 %31
  %33 = load i32, ptr %8, align 4, !tbaa !32
  %34 = sext i32 %33 to i64
  %35 = getelementptr inbounds [3 x i8], ptr @imdct_bits_tab, i64 0, i64 %34
  %36 = load i8, ptr %35, align 1, !tbaa !33
  %37 = zext i8 %36 to i32
  %38 = sub nsw i32 %37, 1
  %39 = shl i32 1, %38
  %40 = call i32 @av_tx_init(ptr noundef %26, ptr noundef %32, i32 noundef 1, i32 noundef 1, i32 noundef %39, ptr noundef %5, i64 noundef 0)
  store i32 %40, ptr %6, align 4, !tbaa !32
  %41 = icmp slt i32 %40, 0
  br i1 %41, label %42, label %44

42:                                               ; preds = %20
  %43 = load i32, ptr %6, align 4, !tbaa !32
  store i32 %43, ptr %2, align 4
  store i32 1, ptr %7, align 4
  br label %72

44:                                               ; preds = %20
  %45 = load ptr, ptr %4, align 8, !tbaa !29
  %46 = getelementptr inbounds nuw %struct.DBEDecodeContext, ptr %45, i32 0, i32 6
  %47 = getelementptr inbounds [2 x [3 x ptr]], ptr %46, i64 0, i64 1
  %48 = load i32, ptr %8, align 4, !tbaa !32
  %49 = sext i32 %48 to i64
  %50 = getelementptr inbounds [3 x ptr], ptr %47, i64 0, i64 %49
  %51 = load ptr, ptr %4, align 8, !tbaa !29
  %52 = getelementptr inbounds nuw %struct.DBEDecodeContext, ptr %51, i32 0, i32 7
  %53 = getelementptr inbounds [2 x [3 x ptr]], ptr %52, i64 0, i64 1
  %54 = load i32, ptr %8, align 4, !tbaa !32
  %55 = sext i32 %54 to i64
  %56 = getelementptr inbounds [3 x ptr], ptr %53, i64 0, i64 %55
  %57 = load i32, ptr %8, align 4, !tbaa !32
  %58 = sext i32 %57 to i64
  %59 = getelementptr inbounds [3 x i8], ptr @imdct_bits_tab, i64 0, i64 %58
  %60 = load i8, ptr %59, align 1, !tbaa !33
  %61 = zext i8 %60 to i32
  %62 = sub nsw i32 %61, 1
  %63 = shl i32 1, %62
  %64 = call i32 @av_tx_init(ptr noundef %50, ptr noundef %56, i32 noundef 1, i32 noundef 1, i32 noundef %63, ptr noundef %5, i64 noundef 4)
  store i32 %64, ptr %6, align 4, !tbaa !32
  %65 = icmp slt i32 %64, 0
  br i1 %65, label %66, label %68

66:                                               ; preds = %44
  %67 = load i32, ptr %6, align 4, !tbaa !32
  store i32 %67, ptr %2, align 4
  store i32 1, ptr %7, align 4
  br label %72

68:                                               ; preds = %44
  br label %69

69:                                               ; preds = %68
  %70 = load i32, ptr %8, align 4, !tbaa !32
  %71 = add nsw i32 %70, 1
  store i32 %71, ptr %8, align 4, !tbaa !32
  br label %16, !llvm.loop !34

72:                                               ; preds = %66, %42, %19
  call void @llvm.lifetime.end.p0(i64 4, ptr %8) #10
  %73 = load i32, ptr %7, align 4
  switch i32 %73, label %98 [
    i32 2, label %74
  ]

74:                                               ; preds = %72
  %75 = call ptr @avpriv_float_dsp_alloc(i32 noundef 0)
  %76 = load ptr, ptr %4, align 8, !tbaa !29
  %77 = getelementptr inbounds nuw %struct.DBEDecodeContext, ptr %76, i32 0, i32 8
  store ptr %75, ptr %77, align 16, !tbaa !36
  %78 = icmp ne ptr %75, null
  br i1 %78, label %80, label %79

79:                                               ; preds = %74
  store i32 -12, ptr %2, align 4
  store i32 1, ptr %7, align 4
  br label %98

80:                                               ; preds = %74
  %81 = load ptr, ptr %4, align 8, !tbaa !29
  %82 = getelementptr inbounds nuw %struct.DBEDecodeContext, ptr %81, i32 0, i32 2
  %83 = getelementptr inbounds nuw %struct.DBEContext, ptr %82, i32 0, i32 7
  %84 = getelementptr inbounds nuw %struct.DolbyEHeaderInfo, ptr %83, i32 0, i32 12
  %85 = load i32, ptr %84, align 16, !tbaa !42
  %86 = icmp eq i32 %85, 1
  %87 = zext i1 %86 to i32
  %88 = load ptr, ptr %4, align 8, !tbaa !29
  %89 = getelementptr inbounds nuw %struct.DBEDecodeContext, ptr %88, i32 0, i32 2
  %90 = getelementptr inbounds nuw %struct.DBEContext, ptr %89, i32 0, i32 7
  %91 = getelementptr inbounds nuw %struct.DolbyEHeaderInfo, ptr %90, i32 0, i32 11
  store i32 %87, ptr %91, align 4, !tbaa !43
  %92 = load ptr, ptr %3, align 8, !tbaa !4
  %93 = load ptr, ptr %4, align 8, !tbaa !29
  %94 = getelementptr inbounds nuw %struct.DBEDecodeContext, ptr %93, i32 0, i32 1
  store ptr %92, ptr %94, align 8, !tbaa !44
  %95 = load ptr, ptr %4, align 8, !tbaa !29
  %96 = getelementptr inbounds nuw %struct.DBEDecodeContext, ptr %95, i32 0, i32 2
  %97 = getelementptr inbounds nuw %struct.DBEContext, ptr %96, i32 0, i32 0
  store ptr %92, ptr %97, align 16, !tbaa !45
  store i32 0, ptr %2, align 4
  store i32 1, ptr %7, align 4
  br label %98

98:                                               ; preds = %80, %79, %72, %14
  call void @llvm.lifetime.end.p0(i64 4, ptr %6) #10
  call void @llvm.lifetime.end.p0(i64 4, ptr %5) #10
  call void @llvm.lifetime.end.p0(i64 8, ptr %4) #10
  %99 = load i32, ptr %2, align 4
  ret i32 %99
}