; Function Attrs: cold nounwind optsize uwtable
define internal range(i32 -2147483648, 1) i32 @dolby_e_init(ptr noundef %0) #0 {
  %2 = alloca float, align 4
  %3 = getelementptr inbounds nuw i8, ptr %0, i64 32
  %4 = load ptr, ptr %3, align 8, !tbaa !4
  call void @llvm.lifetime.start.p0(i64 4, ptr nonnull %2) #10
  store float 2.000000e+00, ptr %2, align 4, !tbaa !27
  %5 = tail call i32 @pthread_once(ptr noundef nonnull @dolby_e_init.init_once, ptr noundef nonnull @init_tables) #10
  %.not = icmp eq i32 %5, 0
  br i1 %.not, label %.preheader, label %.thread

.preheader:                                       ; preds = %1
  %6 = getelementptr inbounds nuw i8, ptr %4, i64 140352
  %7 = getelementptr inbounds nuw i8, ptr %4, i64 140400
  %8 = getelementptr inbounds nuw i8, ptr %4, i64 140376
  %9 = getelementptr inbounds nuw i8, ptr %4, i64 140424
  br label %11

10:                                               ; preds = %21
  %indvars.iv.next = add nuw nsw i64 %indvars.iv, 1
  %exitcond = icmp eq i64 %indvars.iv.next, 3
  br i1 %exitcond, label %26, label %11, !llvm.loop !28

11:                                               ; preds = %.preheader, %10
  %indvars.iv = phi i64 [ 0, %.preheader ], [ %indvars.iv.next, %10 ]
  %12 = getelementptr inbounds nuw [3 x ptr], ptr %6, i64 0, i64 %indvars.iv
  %13 = getelementptr inbounds nuw [3 x ptr], ptr %7, i64 0, i64 %indvars.iv
  %14 = getelementptr inbounds nuw [3 x i8], ptr @imdct_bits_tab, i64 0, i64 %indvars.iv
  %15 = load i8, ptr %14, align 1, !tbaa !30
  %16 = zext i8 %15 to i32
  %17 = add nsw i32 %16, -1
  %18 = shl nuw i32 1, %17
  %19 = call i32 @av_tx_init(ptr noundef nonnull %12, ptr noundef nonnull %13, i32 noundef 1, i32 noundef 1, i32 noundef %18, ptr noundef nonnull %2, i64 noundef 0) #10
  %20 = icmp slt i32 %19, 0
  br i1 %20, label %.thread, label %21

21:                                               ; preds = %11
  %22 = getelementptr inbounds nuw [3 x ptr], ptr %8, i64 0, i64 %indvars.iv
  %23 = getelementptr inbounds nuw [3 x ptr], ptr %9, i64 0, i64 %indvars.iv
  %24 = call i32 @av_tx_init(ptr noundef nonnull %22, ptr noundef nonnull %23, i32 noundef 1, i32 noundef 1, i32 noundef %18, ptr noundef nonnull %2, i64 noundef 4) #10
  %25 = icmp slt i32 %24, 0
  br i1 %25, label %.thread, label %10

26:                                               ; preds = %10
  %27 = call ptr @avpriv_float_dsp_alloc(i32 noundef 0) #10
  %28 = getelementptr inbounds nuw i8, ptr %4, i64 140448
  store ptr %27, ptr %28, align 16, !tbaa !31
  %.not26 = icmp eq ptr %27, null
  br i1 %.not26, label %.thread, label %29

29:                                               ; preds = %26
  %30 = getelementptr inbounds nuw i8, ptr %4, i64 16
  %31 = getelementptr inbounds nuw i8, ptr %4, i64 240
  %32 = load i32, ptr %31, align 16, !tbaa !38
  %33 = icmp eq i32 %32, 1
  %34 = zext i1 %33 to i32
  %35 = getelementptr inbounds nuw i8, ptr %4, i64 236
  store i32 %34, ptr %35, align 4, !tbaa !39
  %36 = getelementptr inbounds nuw i8, ptr %4, i64 8
  store ptr %0, ptr %36, align 8, !tbaa !40
  store ptr %0, ptr %30, align 16, !tbaa !41
  br label %.thread

.thread:                                          ; preds = %11, %21, %26, %1, %29
  %.023 = phi i32 [ 0, %29 ], [ -1313558101, %1 ], [ -12, %26 ], [ %19, %11 ], [ %24, %21 ]
  call void @llvm.lifetime.end.p0(i64 4, ptr nonnull %2) #10
  ret i32 %.023
}